target datalayout = "e-m:e-p270:32:32-p271:32:32-p272:64:64-i64:64-i128:128-f80:128-n8:16:32:64-S128"
target triple = "x86_64-pc-linux-gnu"

%struct.lua_State = type { i8, i8, i8, i8, i8, i8, i8, ptr, ptr, ptr, ptr, ptr, ptr, ptr, ptr, i32, i32, i16, i16, i32, ptr, ptr, ptr, ptr, ptr }
%struct.CallInfo = type { ptr, ptr, ptr, ptr, i32, i32 }

; Function Attrs: mustprogress uwtable
define internal noundef i32 @_ZL11luaB_pcallyP9lua_State(ptr noundef %0) #0 {
  %2 = alloca i32, align 4
  %3 = alloca ptr, align 8
  %4 = alloca ptr, align 8
  %5 = alloca i32, align 4
  store ptr %0, ptr %3, align 8
  %6 = load ptr, ptr %3, align 8
  call void @_Z13luaL_checkanyP9lua_Statei(ptr noundef %6, i32 noundef 1)
  %7 = load ptr, ptr %3, align 8
  %8 = getelementptr inbounds %struct.lua_State, ptr %7, i32 0, i32 8
  %9 = load ptr, ptr %8, align 8
  store ptr %9, ptr %4, align 8
  %10 = load ptr, ptr %3, align 8
  %11 = getelementptr inbounds %struct.lua_State, ptr %10, i32 0, i32 10
  %12 = load ptr, ptr %11, align 8
  %13 = getelementptr inbounds %struct.CallInfo, ptr %12, i32 0, i32 5
  %14 = load i32, ptr %13, align 4
  %15 = or i32 %14, 2
  store i32 %15, ptr %13, align 4
  %16 = load ptr, ptr %3, align 8
  %17 = getelementptr inbounds %struct.lua_State, ptr %16, i32 0, i32 18
  %18 = load i16, ptr %17, align 2
  %19 = add i16 %18, 1
  store i16 %19, ptr %17, align 2
  %20 = load ptr, ptr %3, align 8
  %21 = load ptr, ptr %4, align 8
  %22 = load ptr, ptr %4, align 8
  %23 = load ptr, ptr %3, align 8
  %24 = getelementptr inbounds %struct.lua_State, ptr %23, i32 0, i32 12
  %25 = load ptr, ptr %24, align 8
  %26 = ptrtoint ptr %22 to i64
  %27 = ptrtoint ptr %25 to i64
  %28 = sub i64 %26, %27
  %29 = call noundef i32 @_Z10luaD_pcallP9lua_StatePFvS0_PvES1_ll(ptr noundef %20, ptr noundef @_ZL13luaB_pcallrunP9lua_StatePv, ptr noundef %21, i64 noundef %28, i64 noundef 0)
  store i32 %29, ptr %5, align 4
  %30 = load ptr, ptr %3, align 8
  %31 = getelementptr inbounds %struct.lua_State, ptr %30, i32 0, i32 18
  %32 = load i16, ptr %31, align 2
  %33 = add i16 %32, -1
  store i16 %33, ptr %31, align 2
  %34 = load ptr, ptr %3, align 8
  %35 = getelementptr inbounds %struct.lua_State, ptr %34, i32 0, i32 10
  %36 = load ptr, ptr %35, align 8
  %37 = getelementptr inbounds %struct.CallInfo, ptr %36, i32 0, i32 2
  %38 = load ptr, ptr %37, align 8
  %39 = load ptr, ptr %3, align 8
  %40 = getelementptr inbounds %struct.lua_State, ptr %39, i32 0, i32 7
  %41 = load ptr, ptr %40, align 8
  %42 = icmp ult ptr %38, %41
  br i1 %42, label %43, label %51

43:                                               ; preds = %1
  %44 = load ptr, ptr %3, align 8
  %45 = getelementptr inbounds %struct.lua_State, ptr %44, i32 0, i32 7
  %46 = load ptr, ptr %45, align 8
  %47 = load ptr, ptr %3, align 8
  %48 = getelementptr inbounds %struct.lua_State, ptr %47, i32 0, i32 10
  %49 = load ptr, ptr %48, align 8
  %50 = getelementptr inbounds %struct.CallInfo, ptr %49, i32 0, i32 2
  store ptr %46, ptr %50, align 8
  br label %51

51:                                               ; preds = %43, %1
  %52 = load i32, ptr %5, align 4
  %53 = icmp eq i32 %52, 0
  br i1 %53, label %54, label %67

54:                                               ; preds = %51
  %55 = load ptr, ptr %3, align 8
  %56 = getelementptr inbounds %struct.lua_State, ptr %55, i32 0, i32 3
  %57 = load i8, ptr %56, align 1
  %58 = zext i8 %57 to i32
  %59 = icmp eq i32 %58, 1
  br i1 %59, label %66, label %60

60:                                               ; preds = %54
  %61 = load ptr, ptr %3, align 8
  %62 = getelementptr inbounds %struct.lua_State, ptr %61, i32 0, i32 3
  %63 = load i8, ptr %62, align 1
  %64 = zext i8 %63 to i32
  %65 = icmp eq i32 %64, 6
  br i1 %65, label %66, label %67

66:                                               ; preds = %60, %54
  store i32 -1, ptr %2, align 4
  br label %76

67:                                               ; preds = %60, %51
  %68 = load ptr, ptr %3, align 8
  call void @_Z17lua_rawcheckstackP9lua_Statei(ptr noundef %68, i32 noundef 1)
  %69 = load ptr, ptr %3, align 8
  %70 = load i32, ptr %5, align 4
  %71 = icmp eq i32 %70, 0
  %72 = zext i1 %71 to i32
  call void @_Z15lua_pushbooleanP9lua_Statei(ptr noundef %69, i32 noundef %72)
  %73 = load ptr, ptr %3, align 8
  call void @_Z10lua_insertP9lua_Statei(ptr noundef %73, i32 noundef 1)
  %74 = load ptr, ptr %3, align 8
  %75 = call noundef i32 @_Z10lua_gettopP9lua_State(ptr noundef %74)
  store i32 %75, ptr %2, align 4
  br label %76

76:                                               ; preds = %67, %66
  %77 = load i32, ptr %2, align 4
  ret i32 %77
}