; Function Attrs: mustprogress uwtable
define internal noundef i32 @_ZL11luaB_pcallyP9lua_State(ptr noundef %0) #0 {
  tail call void @_Z13luaL_checkanyP9lua_Statei(ptr noundef %0, i32 noundef 1)
  %2 = getelementptr inbounds i8, ptr %0, i64 16
  %3 = load ptr, ptr %2, align 8
  %4 = getelementptr inbounds i8, ptr %0, i64 32
  %5 = load ptr, ptr %4, align 8
  %6 = getelementptr inbounds i8, ptr %5, i64 36
  %7 = load i32, ptr %6, align 4
  %8 = or i32 %7, 2
  store i32 %8, ptr %6, align 4
  %9 = getelementptr inbounds i8, ptr %0, i64 82
  %10 = load i16, ptr %9, align 2
  %11 = add i16 %10, 1
  store i16 %11, ptr %9, align 2
  %12 = getelementptr inbounds i8, ptr %0, i64 48
  %13 = load ptr, ptr %12, align 8
  %14 = ptrtoint ptr %3 to i64
  %15 = ptrtoint ptr %13 to i64
  %16 = sub i64 %14, %15
  %17 = tail call noundef i32 @_Z10luaD_pcallP9lua_StatePFvS0_PvES1_ll(ptr noundef %0, ptr noundef nonnull @_ZL13luaB_pcallrunP9lua_StatePv, ptr noundef %3, i64 noundef %16, i64 noundef 0)
  %18 = load i16, ptr %9, align 2
  %19 = add i16 %18, -1
  store i16 %19, ptr %9, align 2
  %20 = load ptr, ptr %4, align 8
  %21 = getelementptr inbounds i8, ptr %20, i64 16
  %22 = load ptr, ptr %21, align 8
  %23 = getelementptr inbounds i8, ptr %0, i64 8
  %24 = load ptr, ptr %23, align 8
  %25 = icmp ult ptr %22, %24
  br i1 %25, label %26, label %27

26:                                               ; preds = %1
  store ptr %24, ptr %21, align 8
  br label %27

27:                                               ; preds = %26, %1
  %28 = icmp eq i32 %17, 0
  br i1 %28, label %29, label %32

29:                                               ; preds = %27
  %30 = getelementptr inbounds i8, ptr %0, i64 3
  %31 = load i8, ptr %30, align 1
  switch i8 %31, label %32 [
    i8 1, label %35
    i8 6, label %35
  ]

32:                                               ; preds = %29, %27
  tail call void @_Z17lua_rawcheckstackP9lua_Statei(ptr noundef nonnull %0, i32 noundef 1)
  %33 = zext i1 %28 to i32
  tail call void @_Z15lua_pushbooleanP9lua_Statei(ptr noundef nonnull %0, i32 noundef %33)
  tail call void @_Z10lua_insertP9lua_Statei(ptr noundef nonnull %0, i32 noundef 1)
  %34 = tail call noundef i32 @_Z10lua_gettopP9lua_State(ptr noundef nonnull %0)
  br label %35

35:                                               ; preds = %29, %29, %32
  %.0 = phi i32 [ %34, %32 ], [ -1, %29 ], [ -1, %29 ]
  ret i32 %.0
}